; ModuleID = '12/1127.c'
source_filename = "12/1127.c"
target datalayout = "e-m:e-p270:32:32-p271:32:32-p272:64:64-i64:64-f80:128-n8:16:32:64-S128"
target triple = "x86_64-pc-linux-gnu"

@.str = private unnamed_addr constant [3 x i8] c"%d\00", align 1
@.str.1 = private unnamed_addr constant [4 x i8] c"%d\0A\00", align 1

; Function Attrs: noinline nounwind uwtable
define dso_local i32 @main() #0 {
  %1 = alloca i32, align 4
  %2 = alloca [16 x i32], align 16
  %3 = alloca i32, align 4
  %4 = alloca i32, align 4
  %5 = alloca i32, align 4
  %6 = alloca i32, align 4
  %7 = alloca i32, align 4
  %8 = alloca i32, align 4
  store i32 0, i32* %1, align 4
  br label %9

9:                                                ; preds = %0, %95
  store i32 0, i32* %6, align 4
  store i32 0, i32* %5, align 4
  store i32 0, i32* %8, align 4
  store i32 0, i32* %3, align 4
  br label %10

10:                                               ; preds = %30, %9
  %11 = load i32, i32* %3, align 4
  %12 = sext i32 %11 to i64
  %13 = getelementptr inbounds [16 x i32], [16 x i32]* %2, i64 0, i64 %12
  %14 = call i32 (i8*, ...) @__isoc99_scanf(i8* getelementptr inbounds ([3 x i8], [3 x i8]* @.str, i64 0, i64 0), i32* %13)
  %15 = load i32, i32* %3, align 4
  %16 = sext i32 %15 to i64
  %17 = getelementptr inbounds [16 x i32], [16 x i32]* %2, i64 0, i64 %16
  %18 = load i32, i32* %17, align 4
  %19 = icmp eq i32 %18, 0
  br i1 %19, label %20, label %21

20:                                               ; preds = %10
  br label %33

21:                                               ; preds = %10
  %22 = load i32, i32* %3, align 4
  %23 = sext i32 %22 to i64
  %24 = getelementptr inbounds [16 x i32], [16 x i32]* %2, i64 0, i64 %23
  %25 = load i32, i32* %24, align 4
  %26 = icmp eq i32 %25, -1
  br i1 %26, label %27, label %28

27:                                               ; preds = %21
  store i32 1, i32* %8, align 4
  br label %33

28:                                               ; preds = %21
  br label %29

29:                                               ; preds = %28
  br label %30

30:                                               ; preds = %29
  %31 = load i32, i32* %3, align 4
  %32 = add nsw i32 %31, 1
  store i32 %32, i32* %3, align 4
  br label %10

33:                                               ; preds = %27, %20
  %34 = load i32, i32* %8, align 4
  %35 = icmp eq i32 %34, 1
  br i1 %35, label %36, label %37

36:                                               ; preds = %33
  br label %98

37:                                               ; preds = %33
  store i32 0, i32* %5, align 4
  br label %38

38:                                               ; preds = %92, %37
  %39 = load i32, i32* %5, align 4
  %40 = load i32, i32* %3, align 4
  %41 = sub nsw i32 %40, 1
  %42 = icmp slt i32 %39, %41
  br i1 %42, label %43, label %95

43:                                               ; preds = %38
  %44 = load i32, i32* %5, align 4
  %45 = add nsw i32 %44, 1
  store i32 %45, i32* %7, align 4
  br label %46

46:                                               ; preds = %88, %43
  %47 = load i32, i32* %7, align 4
  %48 = load i32, i32* %3, align 4
  %49 = icmp slt i32 %47, %48
  br i1 %49, label %50, label %91

50:                                               ; preds = %46
  %51 = load i32, i32* %7, align 4
  %52 = sext i32 %51 to i64
  %53 = getelementptr inbounds [16 x i32], [16 x i32]* %2, i64 0, i64 %52
  %54 = load i32, i32* %53, align 4
  %55 = load i32, i32* %5, align 4
  %56 = sext i32 %55 to i64
  %57 = getelementptr inbounds [16 x i32], [16 x i32]* %2, i64 0, i64 %56
  %58 = load i32, i32* %57, align 4
  %59 = mul nsw i32 %58, 2
  %60 = icmp eq i32 %54, %59
  br i1 %60, label %72, label %61

61:                                               ; preds = %50
  %62 = load i32, i32* %5, align 4
  %63 = sext i32 %62 to i64
  %64 = getelementptr inbounds [16 x i32], [16 x i32]* %2, i64 0, i64 %63
  %65 = load i32, i32* %64, align 4
  %66 = load i32, i32* %7, align 4
  %67 = sext i32 %66 to i64
  %68 = getelementptr inbounds [16 x i32], [16 x i32]* %2, i64 0, i64 %67
  %69 = load i32, i32* %68, align 4
  %70 = mul nsw i32 %69, 2
  %71 = icmp eq i32 %65, %70
  br i1 %71, label %72, label %87

72:                                               ; preds = %61, %50
  %73 = load i32, i32* %5, align 4
  %74 = sext i32 %73 to i64
  %75 = getelementptr inbounds [16 x i32], [16 x i32]* %2, i64 0, i64 %74
  %76 = load i32, i32* %75, align 4
  %77 = icmp ne i32 %76, 0
  br i1 %77, label %78, label %87

78:                                               ; preds = %72
  %79 = load i32, i32* %7, align 4
  %80 = sext i32 %79 to i64
  %81 = getelementptr inbounds [16 x i32], [16 x i32]* %2, i64 0, i64 %80
  %82 = load i32, i32* %81, align 4
  %83 = icmp ne i32 %82, 0
  br i1 %83, label %84, label %87

84:                                               ; preds = %78
  %85 = load i32, i32* %6, align 4
  %86 = add nsw i32 %85, 1
  store i32 %86, i32* %6, align 4
  br label %87

87:                                               ; preds = %84, %78, %72, %61
  br label %88

88:                                               ; preds = %87
  %89 = load i32, i32* %7, align 4
  %90 = add nsw i32 %89, 1
  store i32 %90, i32* %7, align 4
  br label %46

91:                                               ; preds = %46
  br label %92

92:                                               ; preds = %91
  %93 = load i32, i32* %5, align 4
  %94 = add nsw i32 %93, 1
  store i32 %94, i32* %5, align 4
  br label %38

95:                                               ; preds = %38
  %96 = load i32, i32* %6, align 4
  %97 = call i32 (i8*, ...) @printf(i8* getelementptr inbounds ([4 x i8], [4 x i8]* @.str.1, i64 0, i64 0), i32 %96)
  br label %9

98:                                               ; preds = %36
  ret i32 0
}

declare dso_local i32 @__isoc99_scanf(i8*, ...) #1

declare dso_local i32 @printf(i8*, ...) #1


!llvm.module.flags = !{!0}
!llvm.ident = !{!1}

!0 = !{i32 1, !"wchar_size", i32 4}
!1 = !{!"clang version 10.0.0-4ubuntu1 "}
